; ModuleID = '29/1241.c'
source_filename = "29/1241.c"
target datalayout = "e-m:e-p270:32:32-p271:32:32-p272:64:64-i64:64-f80:128-n8:16:32:64-S128"
target triple = "x86_64-pc-linux-gnu"

@.str = private unnamed_addr constant [3 x i8] c"%d\00", align 1
@.str.1 = private unnamed_addr constant [7 x i8] c"%.3lf\0A\00", align 1

; Function Attrs: noinline nounwind uwtable
define dso_local i32 @main() #0 {
  %1 = alloca i32, align 4
  %2 = alloca i32, align 4
  %3 = alloca i32, align 4
  %4 = alloca i32, align 4
  %5 = alloca i32*, align 8
  %6 = alloca i32*, align 8
  %7 = alloca i32, align 4
  %8 = alloca i32, align 4
  %9 = alloca i32, align 4
  %10 = alloca double*, align 8
  %11 = alloca double, align 8
  store i32 0, i32* %1, align 4
  %12 = call i32 (i8*, ...) @__isoc99_scanf(i8* getelementptr inbounds ([3 x i8], [3 x i8]* @.str, i64 0, i64 0), i32* %2)
  %13 = load i32, i32* %2, align 4
  %14 = sext i32 %13 to i64
  %15 = mul i64 4, %14
  %16 = call noalias i8* @malloc(i64 %15) #3
  %17 = bitcast i8* %16 to i32*
  store i32* %17, i32** %5, align 8
  store i32 0, i32* %4, align 4
  br label %18

18:                                               ; preds = %28, %0
  %19 = load i32, i32* %4, align 4
  %20 = load i32, i32* %2, align 4
  %21 = icmp slt i32 %19, %20
  br i1 %21, label %22, label %31

22:                                               ; preds = %18
  %23 = load i32*, i32** %5, align 8
  %24 = load i32, i32* %4, align 4
  %25 = sext i32 %24 to i64
  %26 = getelementptr inbounds i32, i32* %23, i64 %25
  %27 = call i32 (i8*, ...) @__isoc99_scanf(i8* getelementptr inbounds ([3 x i8], [3 x i8]* @.str, i64 0, i64 0), i32* %26)
  br label %28

28:                                               ; preds = %22
  %29 = load i32, i32* %4, align 4
  %30 = add nsw i32 %29, 1
  store i32 %30, i32* %4, align 4
  br label %18

31:                                               ; preds = %18
  store i32 0, i32* %4, align 4
  br label %32

32:                                               ; preds = %148, %31
  %33 = load i32, i32* %4, align 4
  %34 = load i32, i32* %2, align 4
  %35 = icmp slt i32 %33, %34
  br i1 %35, label %36, label %151

36:                                               ; preds = %32
  %37 = load i32*, i32** %5, align 8
  %38 = load i32, i32* %4, align 4
  %39 = sext i32 %38 to i64
  %40 = getelementptr inbounds i32, i32* %37, i64 %39
  %41 = load i32, i32* %40, align 4
  %42 = add nsw i32 %41, 1
  %43 = sext i32 %42 to i64
  %44 = mul i64 4, %43
  %45 = call noalias i8* @malloc(i64 %44) #3
  %46 = bitcast i8* %45 to i32*
  store i32* %46, i32** %6, align 8
  store i32 1, i32* %7, align 4
  store i32 2, i32* %8, align 4
  %47 = load i32*, i32** %6, align 8
  %48 = getelementptr inbounds i32, i32* %47, i64 0
  store i32 1, i32* %48, align 4
  %49 = load i32*, i32** %6, align 8
  %50 = getelementptr inbounds i32, i32* %49, i64 1
  store i32 2, i32* %50, align 4
  store i32 2, i32* %9, align 4
  br label %51

51:                                               ; preds = %77, %36
  %52 = load i32, i32* %9, align 4
  %53 = load i32*, i32** %5, align 8
  %54 = load i32, i32* %4, align 4
  %55 = sext i32 %54 to i64
  %56 = getelementptr inbounds i32, i32* %53, i64 %55
  %57 = load i32, i32* %56, align 4
  %58 = icmp sle i32 %52, %57
  br i1 %58, label %59, label %80

59:                                               ; preds = %51
  %60 = load i32*, i32** %6, align 8
  %61 = load i32, i32* %9, align 4
  %62 = sub nsw i32 %61, 2
  %63 = sext i32 %62 to i64
  %64 = getelementptr inbounds i32, i32* %60, i64 %63
  %65 = load i32, i32* %64, align 4
  %66 = load i32*, i32** %6, align 8
  %67 = load i32, i32* %9, align 4
  %68 = sub nsw i32 %67, 1
  %69 = sext i32 %68 to i64
  %70 = getelementptr inbounds i32, i32* %66, i64 %69
  %71 = load i32, i32* %70, align 4
  %72 = add nsw i32 %65, %71
  %73 = load i32*, i32** %6, align 8
  %74 = load i32, i32* %9, align 4
  %75 = sext i32 %74 to i64
  %76 = getelementptr inbounds i32, i32* %73, i64 %75
  store i32 %72, i32* %76, align 4
  br label %77

77:                                               ; preds = %59
  %78 = load i32, i32* %9, align 4
  %79 = add nsw i32 %78, 1
  store i32 %79, i32* %9, align 4
  br label %51

80:                                               ; preds = %51
  %81 = load i32*, i32** %5, align 8
  %82 = load i32, i32* %4, align 4
  %83 = sext i32 %82 to i64
  %84 = getelementptr inbounds i32, i32* %81, i64 %83
  %85 = load i32, i32* %84, align 4
  %86 = sext i32 %85 to i64
  %87 = mul i64 8, %86
  %88 = call noalias i8* @malloc(i64 %87) #3
  %89 = bitcast i8* %88 to double*
  store double* %89, double** %10, align 8
  store i32 0, i32* %9, align 4
  br label %90

90:                                               ; preds = %118, %80
  %91 = load i32, i32* %9, align 4
  %92 = load i32*, i32** %5, align 8
  %93 = load i32, i32* %4, align 4
  %94 = sext i32 %93 to i64
  %95 = getelementptr inbounds i32, i32* %92, i64 %94
  %96 = load i32, i32* %95, align 4
  %97 = icmp slt i32 %91, %96
  br i1 %97, label %98, label %121

98:                                               ; preds = %90
  %99 = load i32*, i32** %6, align 8
  %100 = load i32, i32* %9, align 4
  %101 = add nsw i32 %100, 1
  %102 = sext i32 %101 to i64
  %103 = getelementptr inbounds i32, i32* %99, i64 %102
  %104 = load i32, i32* %103, align 4
  %105 = sitofp i32 %104 to double
  %106 = fmul double 1.000000e+00, %105
  %107 = load i32*, i32** %6, align 8
  %108 = load i32, i32* %9, align 4
  %109 = sext i32 %108 to i64
  %110 = getelementptr inbounds i32, i32* %107, i64 %109
  %111 = load i32, i32* %110, align 4
  %112 = sitofp i32 %111 to double
  %113 = fdiv double %106, %112
  %114 = load double*, double** %10, align 8
  %115 = load i32, i32* %9, align 4
  %116 = sext i32 %115 to i64
  %117 = getelementptr inbounds double, double* %114, i64 %116
  store double %113, double* %117, align 8
  br label %118

118:                                              ; preds = %98
  %119 = load i32, i32* %9, align 4
  %120 = add nsw i32 %119, 1
  store i32 %120, i32* %9, align 4
  br label %90

121:                                              ; preds = %90
  store double 0.000000e+00, double* %11, align 8
  store i32 0, i32* %9, align 4
  br label %122

122:                                              ; preds = %138, %121
  %123 = load i32, i32* %9, align 4
  %124 = load i32*, i32** %5, align 8
  %125 = load i32, i32* %4, align 4
  %126 = sext i32 %125 to i64
  %127 = getelementptr inbounds i32, i32* %124, i64 %126
  %128 = load i32, i32* %127, align 4
  %129 = icmp slt i32 %123, %128
  br i1 %129, label %130, label %141

130:                                              ; preds = %122
  %131 = load double*, double** %10, align 8
  %132 = load i32, i32* %9, align 4
  %133 = sext i32 %132 to i64
  %134 = getelementptr inbounds double, double* %131, i64 %133
  %135 = load double, double* %134, align 8
  %136 = load double, double* %11, align 8
  %137 = fadd double %136, %135
  store double %137, double* %11, align 8
  br label %138

138:                                              ; preds = %130
  %139 = load i32, i32* %9, align 4
  %140 = add nsw i32 %139, 1
  store i32 %140, i32* %9, align 4
  br label %122

141:                                              ; preds = %122
  %142 = load double, double* %11, align 8
  %143 = call i32 (i8*, ...) @printf(i8* getelementptr inbounds ([7 x i8], [7 x i8]* @.str.1, i64 0, i64 0), double %142)
  %144 = load i32*, i32** %6, align 8
  %145 = bitcast i32* %144 to i8*
  call void @free(i8* %145) #3
  %146 = load double*, double** %10, align 8
  %147 = bitcast double* %146 to i8*
  call void @free(i8* %147) #3
  br label %148

148:                                              ; preds = %141
  %149 = load i32, i32* %4, align 4
  %150 = add nsw i32 %149, 1
  store i32 %150, i32* %4, align 4
  br label %32

151:                                              ; preds = %32
  ret i32 0
}

declare dso_local i32 @__isoc99_scanf(i8*, ...) #1

; Function Attrs: nounwind
declare dso_local noalias i8* @malloc(i64) #2

declare dso_local i32 @printf(i8*, ...) #1

; Function Attrs: nounwind
declare dso_local void @free(i8*) #2


!llvm.module.flags = !{!0}
!llvm.ident = !{!1}

!0 = !{i32 1, !"wchar_size", i32 4}
!1 = !{!"clang version 10.0.0-4ubuntu1 "}
